target datalayout = "e-m:e-p270:32:32-p271:32:32-p272:64:64-i64:64-i128:128-f80:128-n8:16:32:64-S128"
target triple = "x86_64-pc-linux-gnu"

%struct._lv_textarea_t = type { %struct._lv_obj_t, ptr, ptr, ptr, ptr, ptr, i32, i32, %struct.anon, i32, i32, i8 }
%struct._lv_obj_t = type { ptr, ptr, ptr, ptr, ptr, %struct.lv_area_t, i32, i16, i16 }
%struct.lv_area_t = type { i32, i32, i32, i32 }
%struct.anon = type { i32, i32, %struct.lv_area_t, i32, i8 }

; Function Attrs: nounwind uwtable
define ptr @lv_textarea_get_label(ptr noundef %0) #0 {
  %2 = alloca ptr, align 8
  %3 = alloca ptr, align 8
  store ptr %0, ptr %2, align 8, !tbaa !8
  br label %4

4:                                                ; preds = %1
  %5 = load ptr, ptr %2, align 8, !tbaa !8
  %6 = icmp ne ptr %5, null
  br i1 %6, label %11, label %7

7:                                                ; preds = %4
  br label %8

8:                                                ; preds = %7
  br label %9

9:                                                ; preds = %8
  br label %10

10:                                               ; preds = %9, %10
  br label %10

11:                                               ; preds = %4
  br label %12

12:                                               ; preds = %11
  call void @llvm.lifetime.start.p0(i64 8, ptr %3) #6
  %13 = load ptr, ptr %2, align 8, !tbaa !8
  store ptr %13, ptr %3, align 8, !tbaa !10
  %14 = load ptr, ptr %3, align 8, !tbaa !10
  %15 = getelementptr inbounds nuw %struct._lv_textarea_t, ptr %14, i32 0, i32 1
  %16 = load ptr, ptr %15, align 8, !tbaa !28
  call void @llvm.lifetime.end.p0(i64 8, ptr %3) #6
  ret ptr %16
}

; Function Attrs: nounwind uwtable
define void @lv_textarea_set_align(ptr noundef %0, i32 noundef %1) #0 {
  %3 = alloca ptr, align 8
  %4 = alloca i32, align 4
  store ptr %0, ptr %3, align 8, !tbaa !8
  store i32 %1, ptr %4, align 4, !tbaa !32
  br label %5

5:                                                ; preds = %2
  br label %6

6:                                                ; preds = %5
  %7 = load ptr, ptr %3, align 8, !tbaa !8
  %8 = load i32, ptr %4, align 4, !tbaa !32
  call void @lv_obj_set_style_text_align(ptr noundef %7, i32 noundef %8, i32 noundef 0)
  %9 = load i32, ptr %4, align 4, !tbaa !32
  switch i32 %9, label %10 [
    i32 1, label %11
    i32 3, label %14
    i32 2, label %17
  ]

10:                                               ; preds = %6
  br label %11

11:                                               ; preds = %6, %10
  %12 = load ptr, ptr %3, align 8, !tbaa !8
  %13 = call ptr @lv_textarea_get_label(ptr noundef %12)
  call void @lv_obj_align(ptr noundef %13, i32 noundef 1, i32 noundef 0, i32 noundef 0)
  br label %20

14:                                               ; preds = %6
  %15 = load ptr, ptr %3, align 8, !tbaa !8
  %16 = call ptr @lv_textarea_get_label(ptr noundef %15)
  call void @lv_obj_align(ptr noundef %16, i32 noundef 3, i32 noundef 0, i32 noundef 0)
  br label %20

17:                                               ; preds = %6
  %18 = load ptr, ptr %3, align 8, !tbaa !8
  %19 = call ptr @lv_textarea_get_label(ptr noundef %18)
  call void @lv_obj_align(ptr noundef %19, i32 noundef 2, i32 noundef 0, i32 noundef 0)
  br label %20

20:                                               ; preds = %17, %14, %11
  ret void
}