; Function Attrs: nounwind uwtable
define void @lv_textarea_set_align(ptr noundef %0, i32 noundef %1) local_unnamed_addr #0 {
  tail call void @lv_obj_set_style_text_align(ptr noundef %0, i32 noundef %1, i32 noundef 0) #10
  %.not.i = icmp eq ptr %0, null
  switch i32 %1, label %3 [
    i32 2, label %5
    i32 3, label %4
  ]

3:                                                ; preds = %2
  br i1 %.not.i, label %.preheader.i, label %lv_textarea_get_label.exit

.preheader.i:                                     ; preds = %3, %.preheader.i
  br label %.preheader.i

4:                                                ; preds = %2
  br i1 %.not.i, label %.preheader.i6, label %lv_textarea_get_label.exit

.preheader.i6:                                    ; preds = %4, %.preheader.i6
  br label %.preheader.i6

5:                                                ; preds = %2
  br i1 %.not.i, label %.preheader.i9, label %lv_textarea_get_label.exit

.preheader.i9:                                    ; preds = %5, %.preheader.i9
  br label %.preheader.i9

lv_textarea_get_label.exit:                       ; preds = %5, %4, %3
  %.sink11 = phi i32 [ 1, %3 ], [ 3, %4 ], [ 2, %5 ]
  %6 = getelementptr inbounds nuw i8, ptr %0, i64 64
  %7 = load ptr, ptr %6, align 8, !tbaa !22
  tail call void @lv_obj_align(ptr noundef %7, i32 noundef %.sink11, i32 noundef 0, i32 noundef 0) #10
  ret void
}